(lp0
(lp1
F0.1
aF0.2
aF0.3
aF0.4
aF0.5
aF0.6
aF0.7
aF0.8
aF0.9
aF1.0
aa(lp2
F0.5972999999999999
aF0.656
aF0.6580999999999999
aF0.6597
aF0.6888599999999999
aF0.7246666666666666
aF0.7182714285714286
aF0.7402375000000001
aF0.7085222222222223
aF0.74414
aa(lp3
F0.58382
aF0.64998
aF0.62834
aF0.6373599999999999
aF0.6814199999999999
aF0.6698999999999999
aF0.6994
aF0.73082
aF0.6718
aF0.69076
aa.